ccopy_reg
_reconstructor
p1
(cPlayerManager.player_manager
Player
p2
c__builtin__
object
p3
NtRp4
(dp5
S'player_name'
p6
S'Roger'
p7
sS'level'
p8
I1
sS'current_objective'
p9
NsS'scenarios'
p10
(lp11
sS'current_quest'
p12
NsS'xp'
p13
I0
sS'current_scenario'
p14
NsS'exp_needed'
p15
I5
sb.